target datalayout = "e-m:e-p270:32:32-p271:32:32-p272:64:64-i64:64-i128:128-f80:128-n8:16:32:64-S128"
target triple = "x86_64-pc-linux-gnu"

%struct.PROV_DH_CTX = type { ptr, ptr, ptr, i8, i32, ptr, ptr, i64, i64, ptr }

@.str = private unnamed_addr constant [56 x i8] c"../openssl/providers/implementations/exchange/dh_exch.c\00", align 1
@__func__.dh_X9_42_kdf_derive = private unnamed_addr constant [20 x i8] c"dh_X9_42_kdf_derive\00", align 1

; Function Attrs: nounwind uwtable
define internal i32 @dh_X9_42_kdf_derive(ptr noundef %0, ptr noundef %1, ptr noundef %2, i64 noundef %3) #0 {
  %5 = alloca i32, align 4
  %6 = alloca ptr, align 8
  %7 = alloca ptr, align 8
  %8 = alloca ptr, align 8
  %9 = alloca i64, align 8
  %10 = alloca ptr, align 8
  %11 = alloca ptr, align 8
  %12 = alloca i64, align 8
  %13 = alloca i32, align 4
  %14 = alloca i32, align 4
  store ptr %0, ptr %6, align 8, !tbaa !3
  store ptr %1, ptr %7, align 8, !tbaa !19
  store ptr %2, ptr %8, align 8, !tbaa !20
  store i64 %3, ptr %9, align 8, !tbaa !22
  call void @llvm.lifetime.start.p0(i64 8, ptr %10) #7
  %15 = load ptr, ptr %6, align 8, !tbaa !3
  store ptr %15, ptr %10, align 8, !tbaa !3
  call void @llvm.lifetime.start.p0(i64 8, ptr %11) #7
  store ptr null, ptr %11, align 8, !tbaa !19
  call void @llvm.lifetime.start.p0(i64 8, ptr %12) #7
  call void @llvm.lifetime.start.p0(i64 4, ptr %13) #7
  store i32 0, ptr %13, align 4, !tbaa !32
  %16 = load ptr, ptr %7, align 8, !tbaa !19
  %17 = icmp eq ptr %16, null
  br i1 %17, label %18, label %23

18:                                               ; preds = %4
  %19 = load ptr, ptr %10, align 8, !tbaa !3
  %20 = getelementptr inbounds nuw %struct.PROV_DH_CTX, ptr %19, i32 0, i32 8
  %21 = load i64, ptr %20, align 8, !tbaa !34
  %22 = load ptr, ptr %8, align 8, !tbaa !20
  store i64 %21, ptr %22, align 8, !tbaa !22
  store i32 1, ptr %5, align 4
  store i32 1, ptr %14, align 4
  br label %87

23:                                               ; preds = %4
  %24 = load ptr, ptr %10, align 8, !tbaa !3
  %25 = getelementptr inbounds nuw %struct.PROV_DH_CTX, ptr %24, i32 0, i32 8
  %26 = load i64, ptr %25, align 8, !tbaa !34
  %27 = load i64, ptr %9, align 8, !tbaa !22
  %28 = icmp ugt i64 %26, %27
  br i1 %28, label %29, label %30

29:                                               ; preds = %23
  call void @ERR_new()
  call void @ERR_set_debug(ptr noundef @.str, i32 noundef 225, ptr noundef @__func__.dh_X9_42_kdf_derive)
  call void (i32, i32, ptr, ...) @ERR_set_error(i32 noundef 57, i32 noundef 106, ptr noundef null)
  store i32 0, ptr %5, align 4
  store i32 1, ptr %14, align 4
  br label %87

30:                                               ; preds = %23
  %31 = load ptr, ptr %10, align 8, !tbaa !3
  %32 = call i32 @dh_plain_derive(ptr noundef %31, ptr noundef null, ptr noundef %12, i64 noundef 0, i32 noundef 1)
  %33 = icmp ne i32 %32, 0
  br i1 %33, label %35, label %34

34:                                               ; preds = %30
  store i32 0, ptr %5, align 4
  store i32 1, ptr %14, align 4
  br label %87

35:                                               ; preds = %30
  %36 = load i64, ptr %12, align 8, !tbaa !22
  %37 = call noalias ptr @CRYPTO_secure_malloc(i64 noundef %36, ptr noundef @.str, i32 noundef 230)
  store ptr %37, ptr %11, align 8, !tbaa !19
  %38 = icmp eq ptr %37, null
  br i1 %38, label %39, label %40

39:                                               ; preds = %35
  store i32 0, ptr %5, align 4
  store i32 1, ptr %14, align 4
  br label %87

40:                                               ; preds = %35
  %41 = load ptr, ptr %10, align 8, !tbaa !3
  %42 = load ptr, ptr %11, align 8, !tbaa !19
  %43 = load i64, ptr %12, align 8, !tbaa !22
  %44 = call i32 @dh_plain_derive(ptr noundef %41, ptr noundef %42, ptr noundef %12, i64 noundef %43, i32 noundef 1)
  %45 = icmp ne i32 %44, 0
  br i1 %45, label %47, label %46

46:                                               ; preds = %40
  br label %83

47:                                               ; preds = %40
  %48 = load ptr, ptr %10, align 8, !tbaa !3
  %49 = getelementptr inbounds nuw %struct.PROV_DH_CTX, ptr %48, i32 0, i32 4
  %50 = load i32, ptr %49, align 4, !tbaa !15
  %51 = icmp eq i32 %50, 1
  br i1 %51, label %52, label %78

52:                                               ; preds = %47
  %53 = load ptr, ptr %7, align 8, !tbaa !19
  %54 = load ptr, ptr %10, align 8, !tbaa !3
  %55 = getelementptr inbounds nuw %struct.PROV_DH_CTX, ptr %54, i32 0, i32 8
  %56 = load i64, ptr %55, align 8, !tbaa !34
  %57 = load ptr, ptr %11, align 8, !tbaa !19
  %58 = load i64, ptr %12, align 8, !tbaa !22
  %59 = load ptr, ptr %10, align 8, !tbaa !3
  %60 = getelementptr inbounds nuw %struct.PROV_DH_CTX, ptr %59, i32 0, i32 9
  %61 = load ptr, ptr %60, align 8, !tbaa !24
  %62 = load ptr, ptr %10, align 8, !tbaa !3
  %63 = getelementptr inbounds nuw %struct.PROV_DH_CTX, ptr %62, i32 0, i32 6
  %64 = load ptr, ptr %63, align 8, !tbaa !26
  %65 = load ptr, ptr %10, align 8, !tbaa !3
  %66 = getelementptr inbounds nuw %struct.PROV_DH_CTX, ptr %65, i32 0, i32 7
  %67 = load i64, ptr %66, align 8, !tbaa !27
  %68 = load ptr, ptr %10, align 8, !tbaa !3
  %69 = getelementptr inbounds nuw %struct.PROV_DH_CTX, ptr %68, i32 0, i32 5
  %70 = load ptr, ptr %69, align 8, !tbaa !25
  %71 = load ptr, ptr %10, align 8, !tbaa !3
  %72 = getelementptr inbounds nuw %struct.PROV_DH_CTX, ptr %71, i32 0, i32 0
  %73 = load ptr, ptr %72, align 8, !tbaa !7
  %74 = call i32 @ossl_dh_kdf_X9_42_asn1(ptr noundef %53, i64 noundef %56, ptr noundef %57, i64 noundef %58, ptr noundef %61, ptr noundef %64, i64 noundef %67, ptr noundef %70, ptr noundef %73, ptr noundef null)
  %75 = icmp ne i32 %74, 0
  br i1 %75, label %77, label %76

76:                                               ; preds = %52
  br label %83

77:                                               ; preds = %52
  br label %78

78:                                               ; preds = %77, %47
  %79 = load ptr, ptr %10, align 8, !tbaa !3
  %80 = getelementptr inbounds nuw %struct.PROV_DH_CTX, ptr %79, i32 0, i32 8
  %81 = load i64, ptr %80, align 8, !tbaa !34
  %82 = load ptr, ptr %8, align 8, !tbaa !20
  store i64 %81, ptr %82, align 8, !tbaa !22
  store i32 1, ptr %13, align 4, !tbaa !32
  br label %83

83:                                               ; preds = %78, %76, %46
  %84 = load ptr, ptr %11, align 8, !tbaa !19
  %85 = load i64, ptr %12, align 8, !tbaa !22
  call void @CRYPTO_secure_clear_free(ptr noundef %84, i64 noundef %85, ptr noundef @.str, i32 noundef 249)
  %86 = load i32, ptr %13, align 4, !tbaa !32
  store i32 %86, ptr %5, align 4
  store i32 1, ptr %14, align 4
  br label %87

87:                                               ; preds = %83, %39, %34, %29, %18
  call void @llvm.lifetime.end.p0(i64 4, ptr %13) #7
  call void @llvm.lifetime.end.p0(i64 8, ptr %12) #7
  call void @llvm.lifetime.end.p0(i64 8, ptr %11) #7
  call void @llvm.lifetime.end.p0(i64 8, ptr %10) #7
  %88 = load i32, ptr %5, align 4
  ret i32 %88
}

; Function Attrs: nounwind uwtable
define internal i32 @dh_derive(ptr noundef %0, ptr noundef %1, ptr noundef %2, i64 noundef %3) #0 {
  %5 = alloca i32, align 4
  %6 = alloca ptr, align 8
  %7 = alloca ptr, align 8
  %8 = alloca ptr, align 8
  %9 = alloca i64, align 8
  %10 = alloca ptr, align 8
  %11 = alloca i32, align 4
  store ptr %0, ptr %6, align 8, !tbaa !3
  store ptr %1, ptr %7, align 8, !tbaa !19
  store ptr %2, ptr %8, align 8, !tbaa !20
  store i64 %3, ptr %9, align 8, !tbaa !22
  call void @llvm.lifetime.start.p0(i64 8, ptr %10) #7
  %12 = load ptr, ptr %6, align 8, !tbaa !3
  store ptr %12, ptr %10, align 8, !tbaa !3
  %13 = call i32 @ossl_prov_is_running()
  %14 = icmp ne i32 %13, 0
  br i1 %14, label %16, label %15

15:                                               ; preds = %4
  store i32 0, ptr %5, align 4
  store i32 1, ptr %11, align 4
  br label %39

16:                                               ; preds = %4
  %17 = load ptr, ptr %10, align 8, !tbaa !3
  %18 = getelementptr inbounds nuw %struct.PROV_DH_CTX, ptr %17, i32 0, i32 4
  %19 = load i32, ptr %18, align 4, !tbaa !15
  switch i32 %19, label %37 [
    i32 0, label %20
    i32 1, label %31
  ]

20:                                               ; preds = %16
  %21 = load ptr, ptr %10, align 8, !tbaa !3
  %22 = load ptr, ptr %7, align 8, !tbaa !19
  %23 = load ptr, ptr %8, align 8, !tbaa !20
  %24 = load i64, ptr %9, align 8, !tbaa !22
  %25 = load ptr, ptr %10, align 8, !tbaa !3
  %26 = getelementptr inbounds nuw %struct.PROV_DH_CTX, ptr %25, i32 0, i32 3
  %27 = load i8, ptr %26, align 8
  %28 = and i8 %27, 1
  %29 = zext i8 %28 to i32
  %30 = call i32 @dh_plain_derive(ptr noundef %21, ptr noundef %22, ptr noundef %23, i64 noundef %24, i32 noundef %29)
  store i32 %30, ptr %5, align 4
  store i32 1, ptr %11, align 4
  br label %39

31:                                               ; preds = %16
  %32 = load ptr, ptr %10, align 8, !tbaa !3
  %33 = load ptr, ptr %7, align 8, !tbaa !19
  %34 = load ptr, ptr %8, align 8, !tbaa !20
  %35 = load i64, ptr %9, align 8, !tbaa !22
  %36 = call i32 @dh_X9_42_kdf_derive(ptr noundef %32, ptr noundef %33, ptr noundef %34, i64 noundef %35)
  store i32 %36, ptr %5, align 4
  store i32 1, ptr %11, align 4
  br label %39

37:                                               ; preds = %16
  br label %38

38:                                               ; preds = %37
  store i32 0, ptr %5, align 4
  store i32 1, ptr %11, align 4
  br label %39

39:                                               ; preds = %38, %31, %20, %15
  call void @llvm.lifetime.end.p0(i64 8, ptr %10) #7
  %40 = load i32, ptr %5, align 4
  ret i32 %40
}