; Function Attrs: nounwind uwtable
define internal range(i32 0, 2) i32 @dh_derive(ptr noundef readonly captures(none) %0, ptr noundef %1, ptr noundef writeonly captures(none) %2, i64 noundef %3) #0 {
  %5 = alloca i64, align 8
  %6 = tail call i32 @ossl_prov_is_running() #7
  %.not = icmp eq i32 %6, 0
  br i1 %.not, label %59, label %7

7:                                                ; preds = %4
  %8 = getelementptr inbounds nuw i8, ptr %0, i64 28
  %9 = load i32, ptr %8, align 4, !tbaa !14
  switch i32 %9, label %59 [
    i32 0, label %10
    i32 1, label %16
  ]

10:                                               ; preds = %7
  %11 = getelementptr inbounds nuw i8, ptr %0, i64 24
  %12 = load i8, ptr %11, align 8
  %13 = and i8 %12, 1
  %14 = zext nneg i8 %13 to i32
  %15 = tail call fastcc i32 @dh_plain_derive(ptr noundef nonnull %0, ptr noundef %1, ptr noundef %2, i64 noundef %3, i32 noundef %14)
  br label %59

16:                                               ; preds = %7
  call void @llvm.lifetime.start.p0(i64 8, ptr nonnull %5) #7
  %17 = icmp eq ptr %1, null
  %18 = getelementptr inbounds nuw i8, ptr %0, i64 56
  %19 = load i64, ptr %18, align 8, !tbaa !16
  br i1 %17, label %20, label %21

20:                                               ; preds = %16
  store i64 %19, ptr %2, align 8, !tbaa !17
  br label %dh_X9_42_kdf_derive.exit

21:                                               ; preds = %16
  %22 = icmp ugt i64 %19, %3
  br i1 %22, label %23, label %24

23:                                               ; preds = %21
  tail call void @ERR_new() #7
  tail call void @ERR_set_debug(ptr noundef nonnull @.str, i32 noundef 225, ptr noundef nonnull @__func__.dh_X9_42_kdf_derive) #7
  tail call void (i32, i32, ptr, ...) @ERR_set_error(i32 noundef 57, i32 noundef 106, ptr noundef null) #7
  br label %dh_X9_42_kdf_derive.exit

24:                                               ; preds = %21
  %25 = getelementptr inbounds nuw i8, ptr %0, i64 8
  %26 = load ptr, ptr %25, align 8, !tbaa !15
  %27 = icmp eq ptr %26, null
  br i1 %27, label %dh_plain_derive.exit.thread.i, label %28

28:                                               ; preds = %24
  %29 = getelementptr inbounds nuw i8, ptr %0, i64 16
  %30 = load ptr, ptr %29, align 8, !tbaa !18
  %31 = icmp eq ptr %30, null
  br i1 %31, label %dh_plain_derive.exit.thread.i, label %32

dh_plain_derive.exit.thread.i:                    ; preds = %28, %24
  tail call void @ERR_new() #7
  tail call void @ERR_set_debug(ptr noundef nonnull @.str, i32 noundef 185, ptr noundef nonnull @__func__.dh_plain_derive) #7
  tail call void (i32, i32, ptr, ...) @ERR_set_error(i32 noundef 57, i32 noundef 128, ptr noundef null) #7
  br label %dh_X9_42_kdf_derive.exit

32:                                               ; preds = %28
  %33 = tail call i32 @DH_size(ptr noundef nonnull %26) #7
  %34 = sext i32 %33 to i64
  store i64 %34, ptr %5, align 8, !tbaa !17
  %35 = tail call noalias ptr @CRYPTO_secure_malloc(i64 noundef %34, ptr noundef nonnull @.str, i32 noundef 230) #7
  %36 = icmp eq ptr %35, null
  br i1 %36, label %dh_X9_42_kdf_derive.exit, label %37

37:                                               ; preds = %32
  %38 = call fastcc i32 @dh_plain_derive(ptr noundef nonnull readonly %0, ptr noundef nonnull %35, ptr noundef nonnull %5, i64 noundef %34, i32 noundef 1)
  %.not25.i = icmp eq i32 %38, 0
  br i1 %.not25.i, label %57, label %39

39:                                               ; preds = %37
  %40 = load i32, ptr %8, align 4, !tbaa !14
  %41 = icmp eq i32 %40, 1
  br i1 %41, label %42, label %55

42:                                               ; preds = %39
  %43 = load i64, ptr %18, align 8, !tbaa !16
  %44 = load i64, ptr %5, align 8, !tbaa !17
  %45 = getelementptr inbounds nuw i8, ptr %0, i64 64
  %46 = load ptr, ptr %45, align 8, !tbaa !19
  %47 = getelementptr inbounds nuw i8, ptr %0, i64 40
  %48 = load ptr, ptr %47, align 8, !tbaa !20
  %49 = getelementptr inbounds nuw i8, ptr %0, i64 48
  %50 = load i64, ptr %49, align 8, !tbaa !21
  %51 = getelementptr inbounds nuw i8, ptr %0, i64 32
  %52 = load ptr, ptr %51, align 8, !tbaa !22
  %53 = load ptr, ptr %0, align 8, !tbaa !3
  %54 = tail call i32 @ossl_dh_kdf_X9_42_asn1(ptr noundef nonnull %1, i64 noundef %43, ptr noundef nonnull %35, i64 noundef %44, ptr noundef %46, ptr noundef %48, i64 noundef %50, ptr noundef %52, ptr noundef %53, ptr noundef null) #7
  %.not26.i = icmp eq i32 %54, 0
  br i1 %.not26.i, label %57, label %55

55:                                               ; preds = %42, %39
  %56 = load i64, ptr %18, align 8, !tbaa !16
  store i64 %56, ptr %2, align 8, !tbaa !17
  br label %57

57:                                               ; preds = %55, %42, %37
  %.0.i = phi i32 [ 1, %55 ], [ 0, %42 ], [ 0, %37 ]
  %58 = load i64, ptr %5, align 8, !tbaa !17
  tail call void @CRYPTO_secure_clear_free(ptr noundef nonnull %35, i64 noundef %58, ptr noundef nonnull @.str, i32 noundef 249) #7
  br label %dh_X9_42_kdf_derive.exit

dh_X9_42_kdf_derive.exit:                         ; preds = %20, %23, %dh_plain_derive.exit.thread.i, %32, %57
  %.022.i = phi i32 [ 1, %20 ], [ 0, %23 ], [ %.0.i, %57 ], [ 0, %32 ], [ 0, %dh_plain_derive.exit.thread.i ]
  call void @llvm.lifetime.end.p0(i64 8, ptr nonnull %5) #7
  br label %59

59:                                               ; preds = %7, %4, %dh_X9_42_kdf_derive.exit, %10
  %.0 = phi i32 [ %.022.i, %dh_X9_42_kdf_derive.exit ], [ %15, %10 ], [ 0, %4 ], [ 0, %7 ]
  ret i32 %.0
}